target datalayout = "e-m:e-p270:32:32-p271:32:32-p272:64:64-i64:64-i128:128-f80:128-n8:16:32:64-S128"
target triple = "x86_64-pc-linux-gnu"

; Function Attrs: mustprogress nounwind uwtable
define dso_local void @_ZNK28cmCxxModuleExportInfoDeleterclEP21cmCxxModuleExportInfo(ptr noundef nonnull align 1 dereferenceable(1) %0, ptr noundef %1) #7 align 2 {
  %3 = alloca ptr, align 8
  %4 = alloca ptr, align 8
  store ptr %0, ptr %3, align 8, !tbaa !228
  store ptr %1, ptr %4, align 8, !tbaa !230
  %5 = load ptr, ptr %4, align 8, !tbaa !230
  %6 = icmp eq ptr %5, null
  br i1 %6, label %8, label %7

7:                                                ; preds = %2
  call void @_ZN21cmCxxModuleExportInfoD2Ev(ptr noundef nonnull align 8 dereferenceable(400) %5) #3
  call void @_ZdlPvm(ptr noundef %5, i64 noundef 400) #19
  br label %8

8:                                                ; preds = %7, %2
  ret void
}