; Function Attrs: mustprogress nounwind uwtable
define dso_local void @_ZNK28cmCxxModuleExportInfoDeleterclEP21cmCxxModuleExportInfo(ptr noundef nonnull readnone align 1 captures(none) dereferenceable(1) %0, ptr noundef %1) local_unnamed_addr #5 align 2 {
  %3 = icmp eq ptr %1, null
  br i1 %3, label %5, label %4

4:                                                ; preds = %2
  tail call void @_ZN21cmCxxModuleExportInfoD2Ev(ptr noundef nonnull align 8 dereferenceable(400) %1) #24
  tail call void @_ZdlPvm(ptr noundef nonnull %1, i64 noundef 400) #25
  br label %5

5:                                                ; preds = %4, %2
  ret void
}